(lp1
(lp2
I53
aI0
aI0
aI0
aa(lp3
I16
aI0
aI0
aI0
aa(lp4
I74
aI0
aI0
aI0
aa(lp5
I11
aI0
aI0
aI0
aa(lp6
I6
aI0
aI0
aI0
aa(lp7
I15
aI0
aI0
aI0
aa(lp8
I19
aI0
aI0
aI0
aa(lp9
I14
aI0
aI0
aI0
aa(lp10
I65
aI0
aI0
aI0
aa(lp11
I18
aI0
aI0
aI0
aa(lp12
I16
aI0
aI0
aI0
aa(lp13
I9
aI0
aI0
aI0
aa(lp14
I20
aI0
aI0
aI0
aa(lp15
I4
aI0
aI0
aI0
aa(lp16
I8
aI0
aI0
aI0
aa.